; Function Attrs: mustprogress nounwind uwtable
define hidden { ptr, i32 } @_ZN4llvm16DAGTypeLegalizer23PromoteIntOp_VP_STRIDEDEPNS_6SDNodeEj(ptr noundef nonnull align 8 dereferenceable(2512) %0, ptr noundef %1, i32 noundef %2) local_unnamed_addr #0 align 2 {
  %4 = alloca %"class.llvm::SmallVector.97", align 8
  %5 = getelementptr inbounds nuw i8, ptr %1, i64 40
  %6 = load ptr, ptr %5, align 8
  %7 = getelementptr inbounds nuw i8, ptr %1, i64 64
  %8 = load i16, ptr %7, align 8
  %9 = zext i16 %8 to i64
  %10 = getelementptr inbounds i8, ptr %4, i64 16
  call void @_ZN4llvm15SmallVectorBaseIjEC2EPvm(ptr noundef nonnull align 8 dereferenceable(16) %4, ptr noundef nonnull %10, i64 noundef 8) #17
  %11 = getelementptr inbounds %"class.llvm::SDUse", ptr %6, i64 %9
  call void @_ZN4llvm15SmallVectorImplINS_7SDValueEE6appendIPKNS_5SDUseEvEEvT_S7_(ptr noundef nonnull align 8 dereferenceable(16) %4, ptr noundef %6, ptr noundef %11)
  %12 = load ptr, ptr %5, align 8
  %13 = zext i32 %2 to i64
  %14 = getelementptr inbounds %"class.llvm::SDUse", ptr %12, i64 %13
  %.sroa.01.0.copyload = load ptr, ptr %14, align 8
  %.sroa.22.0..sroa_idx = getelementptr inbounds i8, ptr %14, i64 8
  %.sroa.22.0.copyload = load i32, ptr %.sroa.22.0..sroa_idx, align 8
  %15 = call { ptr, i32 } @_ZN4llvm16DAGTypeLegalizer19SExtPromotedIntegerENS_7SDValueE(ptr noundef nonnull align 8 dereferenceable(2512) %0, ptr %.sroa.01.0.copyload, i32 %.sroa.22.0.copyload)
  %.fca.0.extract = extractvalue { ptr, i32 } %15, 0
  %.fca.1.extract = extractvalue { ptr, i32 } %15, 1
  %16 = load ptr, ptr %4, align 8
  %17 = getelementptr inbounds %"class.llvm::SDValue", ptr %16, i64 %13
  store ptr %.fca.0.extract, ptr %17, align 8
  %.sroa.24.0..sroa_idx = getelementptr inbounds i8, ptr %17, i64 8
  store i32 %.fca.1.extract, ptr %.sroa.24.0..sroa_idx, align 8
  %18 = getelementptr inbounds nuw i8, ptr %0, i64 8
  %19 = load ptr, ptr %18, align 8
  %20 = load ptr, ptr %4, align 8
  %21 = call noundef i64 @_ZNK4llvm15SmallVectorBaseIjE4sizeEv(ptr noundef nonnull align 8 dereferenceable(16) %4) #17
  %22 = call noundef ptr @_ZN4llvm12SelectionDAG18UpdateNodeOperandsEPNS_6SDNodeENS_8ArrayRefINS_7SDValueEEE(ptr noundef nonnull align 8 dereferenceable(904) %19, ptr noundef nonnull %1, ptr %20, i64 %21) #17
  %23 = call noundef i64 @_ZNK4llvm15SmallVectorBaseIjE4sizeEv(ptr noundef nonnull align 8 dereferenceable(16) %4) #17
  %24 = load ptr, ptr %4, align 8
  %25 = icmp eq ptr %24, %10
  br i1 %25, label %_ZN4llvm11SmallVectorINS_7SDValueELj8EED2Ev.exit, label %26

26:                                               ; preds = %3
  call void @free(ptr noundef %24) #17
  br label %_ZN4llvm11SmallVectorINS_7SDValueELj8EED2Ev.exit

_ZN4llvm11SmallVectorINS_7SDValueELj8EED2Ev.exit: ; preds = %3, %26
  %.fca.0.insert = insertvalue { ptr, i32 } poison, ptr %22, 0
  %.fca.1.insert = insertvalue { ptr, i32 } %.fca.0.insert, i32 0, 1
  ret { ptr, i32 } %.fca.1.insert
}